target datalayout = "e-m:e-p270:32:32-p271:32:32-p272:64:64-i64:64-i128:128-f80:128-n8:16:32:64-S128"
target triple = "x86_64-pc-linux-gnu"

%struct._longobject = type { %struct._object, %struct._PyLongValue }
%struct._object = type { %union.anon, ptr }
%union.anon = type { i64 }
%struct._PyLongValue = type { i64, [1 x i32] }

@.str = private unnamed_addr constant [20 x i8] c"call_pyobject_print\00", align 1
@.str.20 = private unnamed_addr constant [3 x i8] c"w+\00", align 1
@_Py_TrueStruct = external global %struct._longobject, align 8
@_Py_NoneStruct = external global %struct._object, align 8

; Function Attrs: nounwind uwtable
define internal ptr @call_pyobject_print(ptr noundef %0, ptr noundef %1) #0 {
  %3 = alloca ptr, align 8
  %4 = alloca ptr, align 8
  %5 = alloca ptr, align 8
  %6 = alloca ptr, align 8
  %7 = alloca ptr, align 8
  %8 = alloca ptr, align 8
  %9 = alloca ptr, align 8
  %10 = alloca i32, align 4
  %11 = alloca i32, align 4
  store ptr %0, ptr %4, align 8, !tbaa !3
  store ptr %1, ptr %5, align 8, !tbaa !3
  call void @llvm.lifetime.start.p0(i64 8, ptr %6) #6
  call void @llvm.lifetime.start.p0(i64 8, ptr %7) #6
  call void @llvm.lifetime.start.p0(i64 8, ptr %8) #6
  call void @llvm.lifetime.start.p0(i64 8, ptr %9) #6
  call void @llvm.lifetime.start.p0(i64 4, ptr %10) #6
  store i32 0, ptr %10, align 4, !tbaa !8
  %12 = load ptr, ptr %5, align 8, !tbaa !3
  %13 = call i32 (ptr, ptr, i64, i64, ...) @PyArg_UnpackTuple(ptr noundef %12, ptr noundef @.str, i64 noundef 3, i64 noundef 3, ptr noundef %6, ptr noundef %7, ptr noundef %8)
  %14 = icmp ne i32 %13, 0
  br i1 %14, label %16, label %15

15:                                               ; preds = %2
  store ptr null, ptr %3, align 8
  store i32 1, ptr %11, align 4
  br label %34

16:                                               ; preds = %2
  %17 = load ptr, ptr %7, align 8, !tbaa !3
  %18 = call ptr @Py_fopen(ptr noundef %17, ptr noundef @.str.20)
  store ptr %18, ptr %9, align 8, !tbaa !10
  %19 = load ptr, ptr %8, align 8, !tbaa !3
  %20 = icmp eq ptr %19, @_Py_TrueStruct
  br i1 %20, label %21, label %22

21:                                               ; preds = %16
  store i32 1, ptr %10, align 4, !tbaa !8
  br label %22

22:                                               ; preds = %21, %16
  %23 = load ptr, ptr %6, align 8, !tbaa !3
  %24 = load ptr, ptr %9, align 8, !tbaa !10
  %25 = load i32, ptr %10, align 4, !tbaa !8
  %26 = call i32 @PyObject_Print(ptr noundef %23, ptr noundef %24, i32 noundef %25)
  %27 = icmp slt i32 %26, 0
  br i1 %27, label %28, label %31

28:                                               ; preds = %22
  %29 = load ptr, ptr %9, align 8, !tbaa !10
  %30 = call i32 @fclose(ptr noundef %29)
  store ptr null, ptr %3, align 8
  store i32 1, ptr %11, align 4
  br label %34

31:                                               ; preds = %22
  %32 = load ptr, ptr %9, align 8, !tbaa !10
  %33 = call i32 @fclose(ptr noundef %32)
  store ptr @_Py_NoneStruct, ptr %3, align 8
  store i32 1, ptr %11, align 4
  br label %34

34:                                               ; preds = %31, %28, %15
  call void @llvm.lifetime.end.p0(i64 4, ptr %10) #6
  call void @llvm.lifetime.end.p0(i64 8, ptr %9) #6
  call void @llvm.lifetime.end.p0(i64 8, ptr %8) #6
  call void @llvm.lifetime.end.p0(i64 8, ptr %7) #6
  call void @llvm.lifetime.end.p0(i64 8, ptr %6) #6
  %35 = load ptr, ptr %3, align 8
  ret ptr %35
}