; Function Attrs: nounwind uwtable
define internal ptr @call_pyobject_print(ptr readnone captures(none) %0, ptr noundef %1) #0 {
  %3 = alloca ptr, align 8
  %4 = alloca ptr, align 8
  %5 = alloca ptr, align 8
  call void @llvm.lifetime.start.p0(i64 8, ptr nonnull %3) #5
  call void @llvm.lifetime.start.p0(i64 8, ptr nonnull %4) #5
  call void @llvm.lifetime.start.p0(i64 8, ptr nonnull %5) #5
  %6 = call i32 (ptr, ptr, i64, i64, ...) @PyArg_UnpackTuple(ptr noundef %1, ptr noundef nonnull @.str, i64 noundef 3, i64 noundef 3, ptr noundef nonnull %3, ptr noundef nonnull %4, ptr noundef nonnull %5) #5
  %.not = icmp eq i32 %6, 0
  br i1 %.not, label %16, label %7

7:                                                ; preds = %2
  %8 = load ptr, ptr %4, align 8, !tbaa !3
  %9 = call ptr @Py_fopen(ptr noundef %8, ptr noundef nonnull @.str.20) #5
  %10 = load ptr, ptr %5, align 8, !tbaa !3
  %11 = icmp eq ptr %10, @_Py_TrueStruct
  %spec.select = zext i1 %11 to i32
  %12 = load ptr, ptr %3, align 8, !tbaa !3
  %13 = call i32 @PyObject_Print(ptr noundef %12, ptr noundef %9, i32 noundef %spec.select) #5
  %14 = icmp slt i32 %13, 0
  %15 = call i32 @fclose(ptr noundef %9)
  %._Py_NoneStruct = select i1 %14, ptr null, ptr @_Py_NoneStruct
  br label %16

16:                                               ; preds = %7, %2
  %.05 = phi ptr [ null, %2 ], [ %._Py_NoneStruct, %7 ]
  call void @llvm.lifetime.end.p0(i64 8, ptr nonnull %5) #5
  call void @llvm.lifetime.end.p0(i64 8, ptr nonnull %4) #5
  call void @llvm.lifetime.end.p0(i64 8, ptr nonnull %3) #5
  ret ptr %.05
}